; ModuleID = '22/1020.c'
source_filename = "22/1020.c"
target datalayout = "e-m:e-p270:32:32-p271:32:32-p272:64:64-i64:64-f80:128-n8:16:32:64-S128"
target triple = "x86_64-pc-linux-gnu"

@.str = private unnamed_addr constant [3 x i8] c"%d\00", align 1
@.str.1 = private unnamed_addr constant [4 x i8] c",%d\00", align 1
@.str.2 = private unnamed_addr constant [4 x i8] c"No\0A\00", align 1
@.str.3 = private unnamed_addr constant [4 x i8] c"%d\0A\00", align 1

; Function Attrs: noinline nounwind uwtable
define dso_local i32 @main() #0 {
  %1 = alloca i32, align 4
  %2 = alloca i32, align 4
  %3 = alloca i32, align 4
  %4 = alloca [300 x i32], align 16
  %5 = alloca i32, align 4
  store i32 0, i32* %1, align 4
  store i32 0, i32* %3, align 4
  %6 = getelementptr inbounds [300 x i32], [300 x i32]* %4, i64 0, i64 0
  %7 = call i32 (i8*, ...) @__isoc99_scanf(i8* getelementptr inbounds ([3 x i8], [3 x i8]* @.str, i64 0, i64 0), i32* %6)
  %8 = getelementptr inbounds [300 x i32], [300 x i32]* %4, i64 0, i64 0
  %9 = load i32, i32* %8, align 16
  store i32 %9, i32* %2, align 4
  store i32 1, i32* %5, align 4
  br label %10

10:                                               ; preds = %49, %0
  %11 = load i32, i32* %5, align 4
  %12 = sext i32 %11 to i64
  %13 = getelementptr inbounds [300 x i32], [300 x i32]* %4, i64 0, i64 %12
  %14 = call i32 (i8*, ...) @__isoc99_scanf(i8* getelementptr inbounds ([4 x i8], [4 x i8]* @.str.1, i64 0, i64 0), i32* %13)
  %15 = icmp ne i32 %14, 0
  br i1 %15, label %16, label %50

16:                                               ; preds = %10
  %17 = load i32, i32* %5, align 4
  %18 = sext i32 %17 to i64
  %19 = getelementptr inbounds [300 x i32], [300 x i32]* %4, i64 0, i64 %18
  %20 = load i32, i32* %19, align 4
  %21 = load i32, i32* %2, align 4
  %22 = icmp sgt i32 %20, %21
  br i1 %22, label %23, label %29

23:                                               ; preds = %16
  %24 = load i32, i32* %2, align 4
  store i32 %24, i32* %3, align 4
  %25 = load i32, i32* %5, align 4
  %26 = sext i32 %25 to i64
  %27 = getelementptr inbounds [300 x i32], [300 x i32]* %4, i64 0, i64 %26
  %28 = load i32, i32* %27, align 4
  store i32 %28, i32* %2, align 4
  br label %49

29:                                               ; preds = %16
  %30 = load i32, i32* %5, align 4
  %31 = sext i32 %30 to i64
  %32 = getelementptr inbounds [300 x i32], [300 x i32]* %4, i64 0, i64 %31
  %33 = load i32, i32* %32, align 4
  %34 = load i32, i32* %3, align 4
  %35 = icmp sgt i32 %33, %34
  br i1 %35, label %36, label %48

36:                                               ; preds = %29
  %37 = load i32, i32* %5, align 4
  %38 = sext i32 %37 to i64
  %39 = getelementptr inbounds [300 x i32], [300 x i32]* %4, i64 0, i64 %38
  %40 = load i32, i32* %39, align 4
  %41 = load i32, i32* %2, align 4
  %42 = icmp slt i32 %40, %41
  br i1 %42, label %43, label %48

43:                                               ; preds = %36
  %44 = load i32, i32* %5, align 4
  %45 = sext i32 %44 to i64
  %46 = getelementptr inbounds [300 x i32], [300 x i32]* %4, i64 0, i64 %45
  %47 = load i32, i32* %46, align 4
  store i32 %47, i32* %3, align 4
  br label %48

48:                                               ; preds = %43, %36, %29
  br label %49

49:                                               ; preds = %48, %23
  br label %10

50:                                               ; preds = %10
  %51 = load i32, i32* %3, align 4
  %52 = icmp eq i32 %51, 0
  br i1 %52, label %53, label %55

53:                                               ; preds = %50
  %54 = call i32 (i8*, ...) @printf(i8* getelementptr inbounds ([4 x i8], [4 x i8]* @.str.2, i64 0, i64 0))
  br label %58

55:                                               ; preds = %50
  %56 = load i32, i32* %3, align 4
  %57 = call i32 (i8*, ...) @printf(i8* getelementptr inbounds ([4 x i8], [4 x i8]* @.str.3, i64 0, i64 0), i32 %56)
  br label %58

58:                                               ; preds = %55, %53
  ret i32 0
}

declare dso_local i32 @__isoc99_scanf(i8*, ...) #1

declare dso_local i32 @printf(i8*, ...) #1


!llvm.module.flags = !{!0}
!llvm.ident = !{!1}

!0 = !{i32 1, !"wchar_size", i32 4}
!1 = !{!"clang version 10.0.0-4ubuntu1 "}
